target datalayout = "e-m:e-p270:32:32-p271:32:32-p272:64:64-i64:64-i128:128-f80:128-n8:16:32:64-S128"
target triple = "x86_64-pc-linux-gnu"

%struct.PlannedStmt = type { i32, i32, i64, i8, i8, i8, i8, i8, i8, i32, ptr, ptr, ptr, ptr, ptr, ptr, ptr, ptr, ptr, ptr, ptr, ptr, ptr, ptr, i32, i32 }
%struct.Node = type { i32 }
%struct.AlterTableUtilityContext = type { ptr, ptr, i32, ptr, ptr }

@ProcessUtility_hook = dso_local global ptr null, align 8
@None_Receiver = external global ptr, align 8

; Function Attrs: nounwind uwtable
define dso_local void @ProcessUtility(ptr noundef %0, ptr noundef %1, i1 noundef zeroext %2, i32 noundef %3, ptr noundef %4, ptr noundef %5, ptr noundef %6, ptr noundef %7) #0 {
  %9 = alloca ptr, align 8
  %10 = alloca ptr, align 8
  %11 = alloca i8, align 1
  %12 = alloca i32, align 4
  %13 = alloca ptr, align 8
  %14 = alloca ptr, align 8
  %15 = alloca ptr, align 8
  %16 = alloca ptr, align 8
  store ptr %0, ptr %9, align 8
  store ptr %1, ptr %10, align 8
  %17 = zext i1 %2 to i8
  store i8 %17, ptr %11, align 1
  store i32 %3, ptr %12, align 4
  store ptr %4, ptr %13, align 8
  store ptr %5, ptr %14, align 8
  store ptr %6, ptr %15, align 8
  store ptr %7, ptr %16, align 8
  %18 = load ptr, ptr @ProcessUtility_hook, align 8
  %19 = icmp ne ptr %18, null
  br i1 %19, label %20, label %31

20:                                               ; preds = %8
  %21 = load ptr, ptr @ProcessUtility_hook, align 8
  %22 = load ptr, ptr %9, align 8
  %23 = load ptr, ptr %10, align 8
  %24 = load i8, ptr %11, align 1, !range !4, !noundef !5
  %25 = trunc i8 %24 to i1
  %26 = load i32, ptr %12, align 4
  %27 = load ptr, ptr %13, align 8
  %28 = load ptr, ptr %14, align 8
  %29 = load ptr, ptr %15, align 8
  %30 = load ptr, ptr %16, align 8
  call void %21(ptr noundef %22, ptr noundef %23, i1 noundef zeroext %25, i32 noundef %26, ptr noundef %27, ptr noundef %28, ptr noundef %29, ptr noundef %30)
  br label %41

31:                                               ; preds = %8
  %32 = load ptr, ptr %9, align 8
  %33 = load ptr, ptr %10, align 8
  %34 = load i8, ptr %11, align 1, !range !4, !noundef !5
  %35 = trunc i8 %34 to i1
  %36 = load i32, ptr %12, align 4
  %37 = load ptr, ptr %13, align 8
  %38 = load ptr, ptr %14, align 8
  %39 = load ptr, ptr %15, align 8
  %40 = load ptr, ptr %16, align 8
  call void @standard_ProcessUtility(ptr noundef %32, ptr noundef %33, i1 noundef zeroext %35, i32 noundef %36, ptr noundef %37, ptr noundef %38, ptr noundef %39, ptr noundef %40)
  br label %41

41:                                               ; preds = %31, %20
  ret void
}

; Function Attrs: inlinehint nounwind uwtable
define internal ptr @newNode(i64 noundef %0, i32 noundef %1) #6 {
  %3 = alloca i64, align 8
  %4 = alloca i32, align 4
  %5 = alloca ptr, align 8
  store i64 %0, ptr %3, align 8
  store i32 %1, ptr %4, align 4
  call void @llvm.lifetime.start.p0(i64 8, ptr %5) #11
  %6 = load i64, ptr %3, align 8
  %7 = call ptr @palloc0(i64 noundef %6)
  store ptr %7, ptr %5, align 8
  %8 = load i32, ptr %4, align 4
  %9 = load ptr, ptr %5, align 8
  %10 = getelementptr inbounds nuw %struct.Node, ptr %9, i32 0, i32 0
  store i32 %8, ptr %10, align 4
  %11 = load ptr, ptr %5, align 8
  call void @llvm.lifetime.end.p0(i64 8, ptr %5) #11
  ret ptr %11
}

; Function Attrs: nounwind uwtable
define dso_local void @ProcessUtilityForAlterTable(ptr noundef %0, ptr noundef %1) #0 {
  %3 = alloca ptr, align 8
  %4 = alloca ptr, align 8
  %5 = alloca ptr, align 8
  store ptr %0, ptr %3, align 8
  store ptr %1, ptr %4, align 8
  call void @llvm.lifetime.start.p0(i64 8, ptr %5) #11
  call void @EventTriggerAlterTableEnd()
  %6 = call ptr @newNode(i64 noundef 152, i32 noundef 329)
  store ptr %6, ptr %5, align 8
  %7 = load ptr, ptr %5, align 8
  %8 = getelementptr inbounds nuw %struct.PlannedStmt, ptr %7, i32 0, i32 1
  store i32 6, ptr %8, align 4
  %9 = load ptr, ptr %5, align 8
  %10 = getelementptr inbounds nuw %struct.PlannedStmt, ptr %9, i32 0, i32 5
  store i8 0, ptr %10, align 2
  %11 = load ptr, ptr %3, align 8
  %12 = load ptr, ptr %5, align 8
  %13 = getelementptr inbounds nuw %struct.PlannedStmt, ptr %12, i32 0, i32 23
  store ptr %11, ptr %13, align 8
  %14 = load ptr, ptr %4, align 8
  %15 = getelementptr inbounds nuw %struct.AlterTableUtilityContext, ptr %14, i32 0, i32 0
  %16 = load ptr, ptr %15, align 8
  %17 = getelementptr inbounds nuw %struct.PlannedStmt, ptr %16, i32 0, i32 24
  %18 = load i32, ptr %17, align 8
  %19 = load ptr, ptr %5, align 8
  %20 = getelementptr inbounds nuw %struct.PlannedStmt, ptr %19, i32 0, i32 24
  store i32 %18, ptr %20, align 8
  %21 = load ptr, ptr %4, align 8
  %22 = getelementptr inbounds nuw %struct.AlterTableUtilityContext, ptr %21, i32 0, i32 0
  %23 = load ptr, ptr %22, align 8
  %24 = getelementptr inbounds nuw %struct.PlannedStmt, ptr %23, i32 0, i32 25
  %25 = load i32, ptr %24, align 4
  %26 = load ptr, ptr %5, align 8
  %27 = getelementptr inbounds nuw %struct.PlannedStmt, ptr %26, i32 0, i32 25
  store i32 %25, ptr %27, align 4
  %28 = load ptr, ptr %5, align 8
  %29 = load ptr, ptr %4, align 8
  %30 = getelementptr inbounds nuw %struct.AlterTableUtilityContext, ptr %29, i32 0, i32 1
  %31 = load ptr, ptr %30, align 8
  %32 = load ptr, ptr %4, align 8
  %33 = getelementptr inbounds nuw %struct.AlterTableUtilityContext, ptr %32, i32 0, i32 3
  %34 = load ptr, ptr %33, align 8
  %35 = load ptr, ptr %4, align 8
  %36 = getelementptr inbounds nuw %struct.AlterTableUtilityContext, ptr %35, i32 0, i32 4
  %37 = load ptr, ptr %36, align 8
  %38 = load ptr, ptr @None_Receiver, align 8
  call void @ProcessUtility(ptr noundef %28, ptr noundef %31, i1 noundef zeroext false, i32 noundef 3, ptr noundef %34, ptr noundef %37, ptr noundef %38, ptr noundef null)
  %39 = load ptr, ptr %4, align 8
  %40 = getelementptr inbounds nuw %struct.AlterTableUtilityContext, ptr %39, i32 0, i32 0
  %41 = load ptr, ptr %40, align 8
  %42 = getelementptr inbounds nuw %struct.PlannedStmt, ptr %41, i32 0, i32 23
  %43 = load ptr, ptr %42, align 8
  call void @EventTriggerAlterTableStart(ptr noundef %43)
  %44 = load ptr, ptr %4, align 8
  %45 = getelementptr inbounds nuw %struct.AlterTableUtilityContext, ptr %44, i32 0, i32 2
  %46 = load i32, ptr %45, align 8
  call void @EventTriggerAlterTableRelid(i32 noundef %46)
  call void @llvm.lifetime.end.p0(i64 8, ptr %5) #11
  ret void
}