; Function Attrs: nounwind uwtable
define dso_local void @ProcessUtilityForAlterTable(ptr noundef %0, ptr noundef readonly captures(none) %1) local_unnamed_addr #0 {
  tail call void @EventTriggerAlterTableEnd() #11
  %3 = tail call noundef ptr @palloc0(i64 noundef 152) #11
  store i32 329, ptr %3, align 4
  %4 = getelementptr inbounds nuw i8, ptr %3, i64 4
  store i32 6, ptr %4, align 4
  %5 = getelementptr inbounds nuw i8, ptr %3, i64 18
  store i8 0, ptr %5, align 2
  %6 = getelementptr inbounds nuw i8, ptr %3, i64 136
  store ptr %0, ptr %6, align 8
  %7 = load ptr, ptr %1, align 8
  %8 = getelementptr inbounds nuw i8, ptr %7, i64 144
  %9 = load i32, ptr %8, align 8
  %10 = getelementptr inbounds nuw i8, ptr %3, i64 144
  store i32 %9, ptr %10, align 8
  %11 = load ptr, ptr %1, align 8
  %12 = getelementptr inbounds nuw i8, ptr %11, i64 148
  %13 = load i32, ptr %12, align 4
  %14 = getelementptr inbounds nuw i8, ptr %3, i64 148
  store i32 %13, ptr %14, align 4
  %15 = getelementptr inbounds nuw i8, ptr %1, i64 8
  %16 = load ptr, ptr %15, align 8
  %17 = getelementptr inbounds nuw i8, ptr %1, i64 24
  %18 = load ptr, ptr %17, align 8
  %19 = getelementptr inbounds nuw i8, ptr %1, i64 32
  %20 = load ptr, ptr %19, align 8
  %21 = load ptr, ptr @None_Receiver, align 8
  %22 = load ptr, ptr @ProcessUtility_hook, align 8
  %.not.i = icmp eq ptr %22, null
  br i1 %.not.i, label %24, label %23

23:                                               ; preds = %2
  tail call void %22(ptr noundef nonnull %3, ptr noundef %16, i1 noundef zeroext false, i32 noundef 3, ptr noundef %18, ptr noundef %20, ptr noundef %21, ptr noundef null) #11
  br label %ProcessUtility.exit

24:                                               ; preds = %2
  tail call void @standard_ProcessUtility(ptr noundef nonnull %3, ptr noundef %16, i1 noundef zeroext false, i32 noundef 3, ptr noundef %18, ptr noundef %20, ptr noundef %21, ptr noundef null)
  br label %ProcessUtility.exit

ProcessUtility.exit:                              ; preds = %23, %24
  %25 = load ptr, ptr %1, align 8
  %26 = getelementptr inbounds nuw i8, ptr %25, i64 136
  %27 = load ptr, ptr %26, align 8
  tail call void @EventTriggerAlterTableStart(ptr noundef %27) #11
  %28 = getelementptr inbounds nuw i8, ptr %1, i64 16
  %29 = load i32, ptr %28, align 8
  tail call void @EventTriggerAlterTableRelid(i32 noundef %29) #11
  ret void
}